; Function Attrs: mustprogress nofree norecurse nosync nounwind willreturn memory(readwrite, inaccessiblemem: none) uwtable
define dso_local void @ResetTupleHashTable(ptr noundef readonly captures(none) %0) local_unnamed_addr #11 {
  %2 = load ptr, ptr %0, align 8
  %3 = getelementptr inbounds nuw i8, ptr %2, i64 24
  %4 = load ptr, ptr %3, align 8
  %5 = load i64, ptr %2, align 8
  %6 = mul i64 %5, 24
  tail call void @llvm.memset.p0.i64(ptr align 8 %4, i8 0, i64 %6, i1 false)
  %7 = getelementptr inbounds nuw i8, ptr %2, i64 8
  store i32 0, ptr %7, align 8
  ret void
}